#include <math.h>
#include <stdio.h>
#include <stdlib.h>
#include <string.h>

main()
{
      char senior[100][10];
      char junior[100][10];
      char temp[10];
      int  list[100]={0};
      int  se[100];
      int  ju[100];
      int  n,i,j,k,nums,numj,year;

      scanf("%d",&n);
      nums=-1; numj=-1;
      for (i=1;i<=n;i++)
      {
          scanf("%s",temp);
          scanf("%d",&year);
          if (year>=60)
          {
              nums++;
              strcpy(senior[nums],temp);
              se[nums]=year;
              list[nums]=nums;
          }
          else
          {
              numj++;
              strcpy(junior[numj],temp);
              ju[numj]=year;
          }
      }
      for (i=0;i<nums;i++)
          for (j=i+1;j<=nums;j++)
              if ((se[i]<se[j]) ||
                  (se[i]==se[j] && list[i]>list[j]))
              {
                  year=se[i]; se[i]=se[j]; se[j]=year;
                  year=list[i]; list[i]=list[j]; list[j]=year;
                  strcpy(temp,senior[i]);
                  strcpy(senior[i],senior[j]);
                  strcpy(senior[j],temp);                                  
              }
      for (i=0;i<=nums;i++)
      {
          puts(senior[i]);
      }
      for (i=0;i<=numj;i++)
          puts(junior[i]);
      return 0;
}
