; ModuleID = '9/554.c'
source_filename = "9/554.c"
target datalayout = "e-m:e-p270:32:32-p271:32:32-p272:64:64-i64:64-f80:128-n8:16:32:64-S128"
target triple = "x86_64-pc-linux-gnu"

@.str = private unnamed_addr constant [3 x i8] c"%d\00", align 1
@.str.1 = private unnamed_addr constant [3 x i8] c"%s\00", align 1

; Function Attrs: noinline nounwind uwtable
define dso_local i32 @main() #0 {
  %1 = alloca i32, align 4
  %2 = alloca [100 x [10 x i8]], align 16
  %3 = alloca [100 x [10 x i8]], align 16
  %4 = alloca [10 x i8], align 1
  %5 = alloca [100 x i32], align 16
  %6 = alloca [100 x i32], align 16
  %7 = alloca [100 x i32], align 16
  %8 = alloca i32, align 4
  %9 = alloca i32, align 4
  %10 = alloca i32, align 4
  %11 = alloca i32, align 4
  %12 = alloca i32, align 4
  %13 = alloca i32, align 4
  %14 = alloca i32, align 4
  store i32 0, i32* %1, align 4
  %15 = bitcast [100 x i32]* %5 to i8*
  call void @llvm.memset.p0i8.i64(i8* align 16 %15, i8 0, i64 400, i1 false)
  %16 = call i32 (i8*, ...) @__isoc99_scanf(i8* getelementptr inbounds ([3 x i8], [3 x i8]* @.str, i64 0, i64 0), i32* %8)
  store i32 -1, i32* %12, align 4
  store i32 -1, i32* %13, align 4
  store i32 1, i32* %9, align 4
  br label %17

17:                                               ; preds = %58, %0
  %18 = load i32, i32* %9, align 4
  %19 = load i32, i32* %8, align 4
  %20 = icmp sle i32 %18, %19
  br i1 %20, label %21, label %61

21:                                               ; preds = %17
  %22 = getelementptr inbounds [10 x i8], [10 x i8]* %4, i64 0, i64 0
  %23 = call i32 (i8*, ...) @__isoc99_scanf(i8* getelementptr inbounds ([3 x i8], [3 x i8]* @.str.1, i64 0, i64 0), i8* %22)
  %24 = call i32 (i8*, ...) @__isoc99_scanf(i8* getelementptr inbounds ([3 x i8], [3 x i8]* @.str, i64 0, i64 0), i32* %14)
  %25 = load i32, i32* %14, align 4
  %26 = icmp sge i32 %25, 60
  br i1 %26, label %27, label %44

27:                                               ; preds = %21
  %28 = load i32, i32* %12, align 4
  %29 = add nsw i32 %28, 1
  store i32 %29, i32* %12, align 4
  %30 = load i32, i32* %12, align 4
  %31 = sext i32 %30 to i64
  %32 = getelementptr inbounds [100 x [10 x i8]], [100 x [10 x i8]]* %2, i64 0, i64 %31
  %33 = getelementptr inbounds [10 x i8], [10 x i8]* %32, i64 0, i64 0
  %34 = getelementptr inbounds [10 x i8], [10 x i8]* %4, i64 0, i64 0
  %35 = call i8* @strcpy(i8* %33, i8* %34) #4
  %36 = load i32, i32* %14, align 4
  %37 = load i32, i32* %12, align 4
  %38 = sext i32 %37 to i64
  %39 = getelementptr inbounds [100 x i32], [100 x i32]* %6, i64 0, i64 %38
  store i32 %36, i32* %39, align 4
  %40 = load i32, i32* %12, align 4
  %41 = load i32, i32* %12, align 4
  %42 = sext i32 %41 to i64
  %43 = getelementptr inbounds [100 x i32], [100 x i32]* %5, i64 0, i64 %42
  store i32 %40, i32* %43, align 4
  br label %57

44:                                               ; preds = %21
  %45 = load i32, i32* %13, align 4
  %46 = add nsw i32 %45, 1
  store i32 %46, i32* %13, align 4
  %47 = load i32, i32* %13, align 4
  %48 = sext i32 %47 to i64
  %49 = getelementptr inbounds [100 x [10 x i8]], [100 x [10 x i8]]* %3, i64 0, i64 %48
  %50 = getelementptr inbounds [10 x i8], [10 x i8]* %49, i64 0, i64 0
  %51 = getelementptr inbounds [10 x i8], [10 x i8]* %4, i64 0, i64 0
  %52 = call i8* @strcpy(i8* %50, i8* %51) #4
  %53 = load i32, i32* %14, align 4
  %54 = load i32, i32* %13, align 4
  %55 = sext i32 %54 to i64
  %56 = getelementptr inbounds [100 x i32], [100 x i32]* %7, i64 0, i64 %55
  store i32 %53, i32* %56, align 4
  br label %57

57:                                               ; preds = %44, %27
  br label %58

58:                                               ; preds = %57
  %59 = load i32, i32* %9, align 4
  %60 = add nsw i32 %59, 1
  store i32 %60, i32* %9, align 4
  br label %17

61:                                               ; preds = %17
  store i32 0, i32* %9, align 4
  br label %62

62:                                               ; preds = %160, %61
  %63 = load i32, i32* %9, align 4
  %64 = load i32, i32* %12, align 4
  %65 = icmp slt i32 %63, %64
  br i1 %65, label %66, label %163

66:                                               ; preds = %62
  %67 = load i32, i32* %9, align 4
  %68 = add nsw i32 %67, 1
  store i32 %68, i32* %10, align 4
  br label %69

69:                                               ; preds = %156, %66
  %70 = load i32, i32* %10, align 4
  %71 = load i32, i32* %12, align 4
  %72 = icmp sle i32 %70, %71
  br i1 %72, label %73, label %159

73:                                               ; preds = %69
  %74 = load i32, i32* %9, align 4
  %75 = sext i32 %74 to i64
  %76 = getelementptr inbounds [100 x i32], [100 x i32]* %6, i64 0, i64 %75
  %77 = load i32, i32* %76, align 4
  %78 = load i32, i32* %10, align 4
  %79 = sext i32 %78 to i64
  %80 = getelementptr inbounds [100 x i32], [100 x i32]* %6, i64 0, i64 %79
  %81 = load i32, i32* %80, align 4
  %82 = icmp slt i32 %77, %81
  br i1 %82, label %103, label %83

83:                                               ; preds = %73
  %84 = load i32, i32* %9, align 4
  %85 = sext i32 %84 to i64
  %86 = getelementptr inbounds [100 x i32], [100 x i32]* %6, i64 0, i64 %85
  %87 = load i32, i32* %86, align 4
  %88 = load i32, i32* %10, align 4
  %89 = sext i32 %88 to i64
  %90 = getelementptr inbounds [100 x i32], [100 x i32]* %6, i64 0, i64 %89
  %91 = load i32, i32* %90, align 4
  %92 = icmp eq i32 %87, %91
  br i1 %92, label %93, label %155

93:                                               ; preds = %83
  %94 = load i32, i32* %9, align 4
  %95 = sext i32 %94 to i64
  %96 = getelementptr inbounds [100 x i32], [100 x i32]* %5, i64 0, i64 %95
  %97 = load i32, i32* %96, align 4
  %98 = load i32, i32* %10, align 4
  %99 = sext i32 %98 to i64
  %100 = getelementptr inbounds [100 x i32], [100 x i32]* %5, i64 0, i64 %99
  %101 = load i32, i32* %100, align 4
  %102 = icmp sgt i32 %97, %101
  br i1 %102, label %103, label %155

103:                                              ; preds = %93, %73
  %104 = load i32, i32* %9, align 4
  %105 = sext i32 %104 to i64
  %106 = getelementptr inbounds [100 x i32], [100 x i32]* %6, i64 0, i64 %105
  %107 = load i32, i32* %106, align 4
  store i32 %107, i32* %14, align 4
  %108 = load i32, i32* %10, align 4
  %109 = sext i32 %108 to i64
  %110 = getelementptr inbounds [100 x i32], [100 x i32]* %6, i64 0, i64 %109
  %111 = load i32, i32* %110, align 4
  %112 = load i32, i32* %9, align 4
  %113 = sext i32 %112 to i64
  %114 = getelementptr inbounds [100 x i32], [100 x i32]* %6, i64 0, i64 %113
  store i32 %111, i32* %114, align 4
  %115 = load i32, i32* %14, align 4
  %116 = load i32, i32* %10, align 4
  %117 = sext i32 %116 to i64
  %118 = getelementptr inbounds [100 x i32], [100 x i32]* %6, i64 0, i64 %117
  store i32 %115, i32* %118, align 4
  %119 = load i32, i32* %9, align 4
  %120 = sext i32 %119 to i64
  %121 = getelementptr inbounds [100 x i32], [100 x i32]* %5, i64 0, i64 %120
  %122 = load i32, i32* %121, align 4
  store i32 %122, i32* %14, align 4
  %123 = load i32, i32* %10, align 4
  %124 = sext i32 %123 to i64
  %125 = getelementptr inbounds [100 x i32], [100 x i32]* %5, i64 0, i64 %124
  %126 = load i32, i32* %125, align 4
  %127 = load i32, i32* %9, align 4
  %128 = sext i32 %127 to i64
  %129 = getelementptr inbounds [100 x i32], [100 x i32]* %5, i64 0, i64 %128
  store i32 %126, i32* %129, align 4
  %130 = load i32, i32* %14, align 4
  %131 = load i32, i32* %10, align 4
  %132 = sext i32 %131 to i64
  %133 = getelementptr inbounds [100 x i32], [100 x i32]* %5, i64 0, i64 %132
  store i32 %130, i32* %133, align 4
  %134 = getelementptr inbounds [10 x i8], [10 x i8]* %4, i64 0, i64 0
  %135 = load i32, i32* %9, align 4
  %136 = sext i32 %135 to i64
  %137 = getelementptr inbounds [100 x [10 x i8]], [100 x [10 x i8]]* %2, i64 0, i64 %136
  %138 = getelementptr inbounds [10 x i8], [10 x i8]* %137, i64 0, i64 0
  %139 = call i8* @strcpy(i8* %134, i8* %138) #4
  %140 = load i32, i32* %9, align 4
  %141 = sext i32 %140 to i64
  %142 = getelementptr inbounds [100 x [10 x i8]], [100 x [10 x i8]]* %2, i64 0, i64 %141
  %143 = getelementptr inbounds [10 x i8], [10 x i8]* %142, i64 0, i64 0
  %144 = load i32, i32* %10, align 4
  %145 = sext i32 %144 to i64
  %146 = getelementptr inbounds [100 x [10 x i8]], [100 x [10 x i8]]* %2, i64 0, i64 %145
  %147 = getelementptr inbounds [10 x i8], [10 x i8]* %146, i64 0, i64 0
  %148 = call i8* @strcpy(i8* %143, i8* %147) #4
  %149 = load i32, i32* %10, align 4
  %150 = sext i32 %149 to i64
  %151 = getelementptr inbounds [100 x [10 x i8]], [100 x [10 x i8]]* %2, i64 0, i64 %150
  %152 = getelementptr inbounds [10 x i8], [10 x i8]* %151, i64 0, i64 0
  %153 = getelementptr inbounds [10 x i8], [10 x i8]* %4, i64 0, i64 0
  %154 = call i8* @strcpy(i8* %152, i8* %153) #4
  br label %155

155:                                              ; preds = %103, %93, %83
  br label %156

156:                                              ; preds = %155
  %157 = load i32, i32* %10, align 4
  %158 = add nsw i32 %157, 1
  store i32 %158, i32* %10, align 4
  br label %69

159:                                              ; preds = %69
  br label %160

160:                                              ; preds = %159
  %161 = load i32, i32* %9, align 4
  %162 = add nsw i32 %161, 1
  store i32 %162, i32* %9, align 4
  br label %62

163:                                              ; preds = %62
  store i32 0, i32* %9, align 4
  br label %164

164:                                              ; preds = %174, %163
  %165 = load i32, i32* %9, align 4
  %166 = load i32, i32* %12, align 4
  %167 = icmp sle i32 %165, %166
  br i1 %167, label %168, label %177

168:                                              ; preds = %164
  %169 = load i32, i32* %9, align 4
  %170 = sext i32 %169 to i64
  %171 = getelementptr inbounds [100 x [10 x i8]], [100 x [10 x i8]]* %2, i64 0, i64 %170
  %172 = getelementptr inbounds [10 x i8], [10 x i8]* %171, i64 0, i64 0
  %173 = call i32 @puts(i8* %172)
  br label %174

174:                                              ; preds = %168
  %175 = load i32, i32* %9, align 4
  %176 = add nsw i32 %175, 1
  store i32 %176, i32* %9, align 4
  br label %164

177:                                              ; preds = %164
  store i32 0, i32* %9, align 4
  br label %178

178:                                              ; preds = %188, %177
  %179 = load i32, i32* %9, align 4
  %180 = load i32, i32* %13, align 4
  %181 = icmp sle i32 %179, %180
  br i1 %181, label %182, label %191

182:                                              ; preds = %178
  %183 = load i32, i32* %9, align 4
  %184 = sext i32 %183 to i64
  %185 = getelementptr inbounds [100 x [10 x i8]], [100 x [10 x i8]]* %3, i64 0, i64 %184
  %186 = getelementptr inbounds [10 x i8], [10 x i8]* %185, i64 0, i64 0
  %187 = call i32 @puts(i8* %186)
  br label %188

188:                                              ; preds = %182
  %189 = load i32, i32* %9, align 4
  %190 = add nsw i32 %189, 1
  store i32 %190, i32* %9, align 4
  br label %178

191:                                              ; preds = %178
  ret i32 0
}

; Function Attrs: argmemonly nounwind willreturn
declare void @llvm.memset.p0i8.i64(i8* nocapture writeonly, i8, i64, i1 immarg) #1

declare dso_local i32 @__isoc99_scanf(i8*, ...) #2

; Function Attrs: nounwind
declare dso_local i8* @strcpy(i8*, i8*) #3

declare dso_local i32 @puts(i8*) #2


!llvm.module.flags = !{!0}
!llvm.ident = !{!1}

!0 = !{i32 1, !"wchar_size", i32 4}
!1 = !{!"clang version 10.0.0-4ubuntu1 "}
